(lp0
VAdele
p1
aVAdele
p2
aVAdele
p3
aVAdele
p4
aVAdele
p5
aVAdele
p6
aVAdele
p7
aVAdele
p8
aVAdele
p9
aVAdele
p10
aVAdele
p11
aVAdele
p12
aVAdele
p13
aVAdele
p14
aVAdele
p15
aVAdele
p16
aVAdele
p17
aVAdele
p18
aVAdele
p19
aVAdele
p20
aVIdina Menzel
p21
aVAdele
p22
aVAdele
p23
aVAdele
p24
aVAdele
p25
aVAdele
p26
aVAdele
p27
aVAdele
p28
aVAdele
p29
aVAdele
p30
aVAdele
p31
aVAdele
p32
aVAdele
p33
aVAdele
p34
aVAdele
p35
aVAdele
p36
aVAdele
p37
aVAdele
p38
aVAdele
p39
aVAdele
p40
aVAdele
p41
aVAdele
p42
aVAdele
p43
aVAdele
p44
aVAdele
p45
aVAdele
p46
aVAdele
p47
aVAdele
p48
aVAdele
p49
aVAdele
p50
aVAdele
p51
aVAdele
p52
aVAdele
p53
aVIdina Menzel
p54
aVIdina Menzel
p55
aVAdele
p56
aVAdele
p57
aVIdina Menzel
p58
aVAdele Taylor
p59
aVAdele
p60
aVAdele
p61
aVAdele
p62
aVAdele
p63
aVAdele
p64
aVSycAmour
p65
aVAdele
p66
aVIdina Menzel
p67
aVAdele
p68
aVAdele
p69
aVAdele vs. Daft Punk
p70
aVAdele
p71
aVIdina Menzel
p72
aVIdina Menzel
p73
aVIdina Menzel
p74
aVIdina Menzel
p75
aVIdina Menzel
p76
aVIdina Menzel
p77
aVIdina Menzel
p78
aVAdele
p79
aVIdina Menzel
p80
aVAdele
p81
aVDaniel Merriweather feat. Adele
p82
aVAdele & Jools Holland
p83
aVTyga feat. Adele
p84
aVIdina Menzel
p85
aVAdele / Misha B
p86
aVIdina Menzel
p87
aVIdina Menzel
p88
aVAdele Garrison
p89
aVAdele & The Raconteurs
p90
aVIdina Menzel
p91
aVAdele
p92
aVHOT 100
p93
aVScott Bradlee's Postmodern Jukebox feat. Robyn Adele Anderson & The Tee Tones
p94
aVIdina Menzel
p95
aVIdina Menzel
p96
aVAdele feat. MartyParty & Minnesota
p97
a.